; ModuleID = '24/2211.c'
source_filename = "24/2211.c"
target datalayout = "e-m:e-p270:32:32-p271:32:32-p272:64:64-i64:64-f80:128-n8:16:32:64-S128"
target triple = "x86_64-pc-linux-gnu"

@.str = private unnamed_addr constant [3 x i8] c"%c\00", align 1
@.str.1 = private unnamed_addr constant [4 x i8] c"%s\0A\00", align 1
@.str.2 = private unnamed_addr constant [3 x i8] c"%s\00", align 1

; Function Attrs: noinline nounwind uwtable
define dso_local i32 @main() #0 {
  %1 = alloca i32, align 4
  %2 = alloca [200 x [20 x i8]], align 16
  %3 = alloca [20 x i8], align 16
  %4 = alloca [20 x i8], align 16
  %5 = alloca i32, align 4
  %6 = alloca i32, align 4
  %7 = alloca i32, align 4
  %8 = alloca i32, align 4
  %9 = alloca i32, align 4
  %10 = alloca i32, align 4
  %11 = alloca i32, align 4
  store i32 0, i32* %1, align 4
  store i32 0, i32* %7, align 4
  store i32 0, i32* %5, align 4
  br label %12

12:                                               ; preds = %67, %0
  %13 = load i32, i32* %7, align 4
  %14 = icmp eq i32 %13, 1
  br i1 %14, label %15, label %20

15:                                               ; preds = %12
  %16 = load i32, i32* %5, align 4
  %17 = sext i32 %16 to i64
  %18 = getelementptr inbounds [200 x [20 x i8]], [200 x [20 x i8]]* %2, i64 0, i64 %17
  %19 = getelementptr inbounds [20 x i8], [20 x i8]* %18, i64 0, i64 0
  store i8 0, i8* %19, align 4
  br label %70

20:                                               ; preds = %12
  store i32 0, i32* %6, align 4
  br label %21

21:                                               ; preds = %63, %20
  %22 = load i32, i32* %5, align 4
  %23 = sext i32 %22 to i64
  %24 = getelementptr inbounds [200 x [20 x i8]], [200 x [20 x i8]]* %2, i64 0, i64 %23
  %25 = load i32, i32* %6, align 4
  %26 = sext i32 %25 to i64
  %27 = getelementptr inbounds [20 x i8], [20 x i8]* %24, i64 0, i64 %26
  %28 = call i32 (i8*, ...) @__isoc99_scanf(i8* getelementptr inbounds ([3 x i8], [3 x i8]* @.str, i64 0, i64 0), i8* %27)
  %29 = load i32, i32* %5, align 4
  %30 = sext i32 %29 to i64
  %31 = getelementptr inbounds [200 x [20 x i8]], [200 x [20 x i8]]* %2, i64 0, i64 %30
  %32 = load i32, i32* %6, align 4
  %33 = sext i32 %32 to i64
  %34 = getelementptr inbounds [20 x i8], [20 x i8]* %31, i64 0, i64 %33
  %35 = load i8, i8* %34, align 1
  %36 = sext i8 %35 to i32
  %37 = icmp eq i32 %36, 32
  br i1 %37, label %38, label %45

38:                                               ; preds = %21
  %39 = load i32, i32* %5, align 4
  %40 = sext i32 %39 to i64
  %41 = getelementptr inbounds [200 x [20 x i8]], [200 x [20 x i8]]* %2, i64 0, i64 %40
  %42 = load i32, i32* %6, align 4
  %43 = sext i32 %42 to i64
  %44 = getelementptr inbounds [20 x i8], [20 x i8]* %41, i64 0, i64 %43
  store i8 0, i8* %44, align 1
  br label %66

45:                                               ; preds = %21
  %46 = load i32, i32* %5, align 4
  %47 = sext i32 %46 to i64
  %48 = getelementptr inbounds [200 x [20 x i8]], [200 x [20 x i8]]* %2, i64 0, i64 %47
  %49 = load i32, i32* %6, align 4
  %50 = sext i32 %49 to i64
  %51 = getelementptr inbounds [20 x i8], [20 x i8]* %48, i64 0, i64 %50
  %52 = load i8, i8* %51, align 1
  %53 = sext i8 %52 to i32
  %54 = icmp eq i32 %53, 10
  br i1 %54, label %55, label %62

55:                                               ; preds = %45
  %56 = load i32, i32* %5, align 4
  %57 = sext i32 %56 to i64
  %58 = getelementptr inbounds [200 x [20 x i8]], [200 x [20 x i8]]* %2, i64 0, i64 %57
  %59 = load i32, i32* %6, align 4
  %60 = sext i32 %59 to i64
  %61 = getelementptr inbounds [20 x i8], [20 x i8]* %58, i64 0, i64 %60
  store i8 0, i8* %61, align 1
  store i32 1, i32* %7, align 4
  br label %66

62:                                               ; preds = %45
  br label %63

63:                                               ; preds = %62
  %64 = load i32, i32* %6, align 4
  %65 = add nsw i32 %64, 1
  store i32 %65, i32* %6, align 4
  br label %21

66:                                               ; preds = %55, %38
  br label %67

67:                                               ; preds = %66
  %68 = load i32, i32* %5, align 4
  %69 = add nsw i32 %68, 1
  store i32 %69, i32* %5, align 4
  br label %12

70:                                               ; preds = %15
  %71 = getelementptr inbounds [200 x [20 x i8]], [200 x [20 x i8]]* %2, i64 0, i64 0
  %72 = getelementptr inbounds [20 x i8], [20 x i8]* %71, i64 0, i64 0
  %73 = call i64 @strlen(i8* %72) #4
  %74 = trunc i64 %73 to i32
  store i32 %74, i32* %9, align 4
  %75 = getelementptr inbounds [200 x [20 x i8]], [200 x [20 x i8]]* %2, i64 0, i64 0
  %76 = getelementptr inbounds [20 x i8], [20 x i8]* %75, i64 0, i64 0
  %77 = call i64 @strlen(i8* %76) #4
  %78 = trunc i64 %77 to i32
  store i32 %78, i32* %8, align 4
  %79 = getelementptr inbounds [20 x i8], [20 x i8]* %3, i64 0, i64 0
  %80 = getelementptr inbounds [200 x [20 x i8]], [200 x [20 x i8]]* %2, i64 0, i64 0
  %81 = getelementptr inbounds [20 x i8], [20 x i8]* %80, i64 0, i64 0
  %82 = call i8* @strcpy(i8* %79, i8* %81) #5
  %83 = getelementptr inbounds [20 x i8], [20 x i8]* %4, i64 0, i64 0
  %84 = getelementptr inbounds [200 x [20 x i8]], [200 x [20 x i8]]* %2, i64 0, i64 0
  %85 = getelementptr inbounds [20 x i8], [20 x i8]* %84, i64 0, i64 0
  %86 = call i8* @strcpy(i8* %83, i8* %85) #5
  store i32 0, i32* %10, align 4
  br label %87

87:                                               ; preds = %136, %70
  %88 = load i32, i32* %10, align 4
  %89 = load i32, i32* %5, align 4
  %90 = icmp slt i32 %88, %89
  br i1 %90, label %91, label %139

91:                                               ; preds = %87
  %92 = load i32, i32* %10, align 4
  %93 = sext i32 %92 to i64
  %94 = getelementptr inbounds [200 x [20 x i8]], [200 x [20 x i8]]* %2, i64 0, i64 %93
  %95 = getelementptr inbounds [20 x i8], [20 x i8]* %94, i64 0, i64 0
  %96 = call i64 @strlen(i8* %95) #4
  %97 = load i32, i32* %8, align 4
  %98 = sext i32 %97 to i64
  %99 = icmp ugt i64 %96, %98
  br i1 %99, label %100, label %113

100:                                              ; preds = %91
  %101 = load i32, i32* %10, align 4
  %102 = sext i32 %101 to i64
  %103 = getelementptr inbounds [200 x [20 x i8]], [200 x [20 x i8]]* %2, i64 0, i64 %102
  %104 = getelementptr inbounds [20 x i8], [20 x i8]* %103, i64 0, i64 0
  %105 = call i64 @strlen(i8* %104) #4
  %106 = trunc i64 %105 to i32
  store i32 %106, i32* %8, align 4
  %107 = getelementptr inbounds [20 x i8], [20 x i8]* %3, i64 0, i64 0
  %108 = load i32, i32* %10, align 4
  %109 = sext i32 %108 to i64
  %110 = getelementptr inbounds [200 x [20 x i8]], [200 x [20 x i8]]* %2, i64 0, i64 %109
  %111 = getelementptr inbounds [20 x i8], [20 x i8]* %110, i64 0, i64 0
  %112 = call i8* @strcpy(i8* %107, i8* %111) #5
  br label %113

113:                                              ; preds = %100, %91
  %114 = load i32, i32* %10, align 4
  %115 = sext i32 %114 to i64
  %116 = getelementptr inbounds [200 x [20 x i8]], [200 x [20 x i8]]* %2, i64 0, i64 %115
  %117 = getelementptr inbounds [20 x i8], [20 x i8]* %116, i64 0, i64 0
  %118 = call i64 @strlen(i8* %117) #4
  %119 = load i32, i32* %9, align 4
  %120 = sext i32 %119 to i64
  %121 = icmp ult i64 %118, %120
  br i1 %121, label %122, label %135

122:                                              ; preds = %113
  %123 = load i32, i32* %10, align 4
  %124 = sext i32 %123 to i64
  %125 = getelementptr inbounds [200 x [20 x i8]], [200 x [20 x i8]]* %2, i64 0, i64 %124
  %126 = getelementptr inbounds [20 x i8], [20 x i8]* %125, i64 0, i64 0
  %127 = call i64 @strlen(i8* %126) #4
  %128 = trunc i64 %127 to i32
  store i32 %128, i32* %9, align 4
  %129 = getelementptr inbounds [20 x i8], [20 x i8]* %4, i64 0, i64 0
  %130 = load i32, i32* %10, align 4
  %131 = sext i32 %130 to i64
  %132 = getelementptr inbounds [200 x [20 x i8]], [200 x [20 x i8]]* %2, i64 0, i64 %131
  %133 = getelementptr inbounds [20 x i8], [20 x i8]* %132, i64 0, i64 0
  %134 = call i8* @strcpy(i8* %129, i8* %133) #5
  br label %135

135:                                              ; preds = %122, %113
  br label %136

136:                                              ; preds = %135
  %137 = load i32, i32* %10, align 4
  %138 = add nsw i32 %137, 1
  store i32 %138, i32* %10, align 4
  br label %87

139:                                              ; preds = %87
  %140 = getelementptr inbounds [20 x i8], [20 x i8]* %3, i64 0, i64 0
  %141 = call i32 (i8*, ...) @printf(i8* getelementptr inbounds ([4 x i8], [4 x i8]* @.str.1, i64 0, i64 0), i8* %140)
  %142 = getelementptr inbounds [20 x i8], [20 x i8]* %4, i64 0, i64 0
  %143 = call i32 (i8*, ...) @printf(i8* getelementptr inbounds ([3 x i8], [3 x i8]* @.str.2, i64 0, i64 0), i8* %142)
  ret i32 0
}

declare dso_local i32 @__isoc99_scanf(i8*, ...) #1

; Function Attrs: nounwind readonly
declare dso_local i64 @strlen(i8*) #2

; Function Attrs: nounwind
declare dso_local i8* @strcpy(i8*, i8*) #3

declare dso_local i32 @printf(i8*, ...) #1


!llvm.module.flags = !{!0}
!llvm.ident = !{!1}

!0 = !{i32 1, !"wchar_size", i32 4}
!1 = !{!"clang version 10.0.0-4ubuntu1 "}
